(lp0
(S'cppflags'
p1
ccopy_reg
_reconstructor
p2
(cino.utils
SpaceList
p3
c__builtin__
list
p4
(lp5
S'-mmcu=atmega328p'
p6
aS'-DF_CPU=16000000L'
p7
aS'-DARDUINO=105'
p8
aS'-I/usr/share/arduino/hardware/arduino/cores/arduino'
p9
aS'-ffunction-sections'
p10
aS'-fdata-sections'
p11
aS'-g'
p12
aS'-Os'
p13
aS'-w'
p14
aS'-I/usr/share/arduino/hardware/arduino/variants/standard'
p15
aS'-Ilib/TM1638'
p16
aS'-I/usr/share/arduino/libraries/Robot_Control'
p17
aS'-I/usr/share/arduino/libraries/Robot_Control/utility'
p18
aS'-Ilib/USB_Host_Shield_2.0'
p19
aS'-I/usr/share/arduino/libraries/Wire'
p20
aS'-I/usr/share/arduino/libraries/Wire/utility'
p21
aS'-I/usr/share/arduino/libraries/SD'
p22
aS'-I/usr/share/arduino/libraries/SD/utility'
p23
aS'-I/usr/share/arduino/hardware/arduino/cores/arduino'
p24
aS'-I/usr/share/arduino/hardware/arduino/cores/arduino/avr-libc'
p25
atp26
Rp27
tp28
a(S'cxx'
p29
S'/usr/share/arduino/hardware/tools/avr/bin/avr-g++'
p30
tp31
a(S'version.txt'
p32
S'/usr/share/arduino/lib/version.txt'
p33
tp34
a(S'used_libs'
p35
(lp36
S'lib/TM1638'
p37
aS'/usr/share/arduino/libraries/Robot_Control'
p38
aS'lib/USB_Host_Shield_2.0'
p39
aS'/usr/share/arduino/libraries/Wire'
p40
aS'/usr/share/arduino/libraries/SD'
p41
aS'/usr/share/arduino/hardware/arduino/cores/arduino'
p42
atp43
a(S'cc'
p44
S'/usr/share/arduino/hardware/tools/avr/bin/avr-gcc'
p45
tp46
a(S'make'
p47
S'/usr/share/arduino/hardware/tools/avr/bin/make'
p48
tp49
a(S'cflags'
p50
g2
(g3
g4
(lp51
tp52
Rp53
tp54
a(S'build_dir'
p55
S'.build/uno'
p56
tp57
a(S'arduino_core_dir'
p58
g42
tp59
a(S'boards.txt'
p60
(lp61
S'/usr/share/arduino/hardware/arduino/boards.txt'
p62
atp63
a(S'cxxflags'
p64
g2
(g3
g4
(lp65
S'-fno-exceptions'
p66
atp67
Rp68
tp69
a(S'arduino_variants_dir'
p70
S'/usr/share/arduino/hardware/arduino/variants'
p71
tp72
a(S'ar'
p73
S'/usr/share/arduino/hardware/tools/avr/bin/avr-ar'
p74
tp75
a(S'names'
p76
(dp77
S'cpp'
p78
S'%s.cpp'
p79
sS'obj'
p80
S'%s.o'
p81
sS'deps'
p82
S'%s.d'
p83
sS'lib'
p84
S'lib%s.a'
p85
stp86
a(S'deps'
p87
g2
(g3
g4
(lp88
S'.build/uno/src/dependencies.d'
p89
aS'.build/uno/arduino/dependencies.d'
p90
aS'.build/uno/TM1638/dependencies.d'
p91
aS'.build/uno/Robot_Control/dependencies.d'
p92
aS'.build/uno/USB_Host_Shield_2.0/dependencies.d'
p93
aS'.build/uno/Wire/dependencies.d'
p94
aS'.build/uno/SD/dependencies.d'
p95
atp96
Rp97
tp98
a(S'arduino_libraries_dir'
p99
S'/usr/share/arduino/libraries'
p100
tp101
a(S'arduino_lib_version'
p102
g2
(cino.environment
Version
p103
c__builtin__
tuple
p104
(I1
I0
I5
tp105
tp106
Rp107
tp108
a(S'objcopy'
p109
S'/usr/share/arduino/hardware/tools/avr/bin/avr-objcopy'
p110
tp111
a(S'board_models'
p112
cino.environment
BoardModels
p113
((lp114
(lp115
S'uno'
p116
a(dp117
S'_coredir'
p118
S'/usr/share/arduino/hardware/arduino'
p119
sS'bootloader'
p120
(dp121
S'extended_fuses'
p122
S'0x05'
p123
sS'high_fuses'
p124
S'0xde'
p125
sS'low_fuses'
p126
S'0xff'
p127
sS'lock_bits'
p128
S'0x0F'
p129
sS'file'
p130
S'optiboot_atmega328.hex'
p131
sS'path'
p132
S'optiboot'
p133
sS'unlock_bits'
p134
S'0x3F'
p135
ssS'build'
p136
(dp137
S'core'
p138
S'arduino'
p139
sS'mcu'
p140
S'atmega328p'
p141
sS'f_cpu'
p142
S'16000000L'
p143
sS'variant'
p144
S'standard'
p145
ssS'name'
p146
S'Arduino Uno'
p147
sS'upload'
p148
(dp149
S'protocol'
p150
S'arduino'
p151
sS'maximum_size'
p152
S'32256'
p153
sS'speed'
p154
S'115200'
p155
ssaa(lp156
S'atmega328'
p157
a(dp158
g118
S'/usr/share/arduino/hardware/arduino'
p159
sS'bootloader'
p160
(dp161
S'extended_fuses'
p162
S'0x05'
p163
sS'high_fuses'
p164
S'0xDA'
p165
sS'low_fuses'
p166
S'0xFF'
p167
sS'lock_bits'
p168
S'0x0F'
p169
sS'file'
p170
S'ATmegaBOOT_168_atmega328.hex'
p171
sS'path'
p172
S'atmega'
p173
sS'unlock_bits'
p174
S'0x3F'
p175
ssS'build'
p176
(dp177
S'core'
p178
S'arduino'
p179
sS'mcu'
p180
S'atmega328p'
p181
sS'f_cpu'
p182
S'16000000L'
p183
sS'variant'
p184
S'standard'
p185
ssS'name'
p186
S'Arduino Duemilanove w/ ATmega328'
p187
sS'upload'
p188
(dp189
S'protocol'
p190
S'arduino'
p191
sS'maximum_size'
p192
S'30720'
p193
sS'speed'
p194
S'57600'
p195
ssaa(lp196
S'diecimila'
p197
a(dp198
g118
S'/usr/share/arduino/hardware/arduino'
p199
sS'bootloader'
p200
(dp201
S'extended_fuses'
p202
S'0x00'
p203
sS'high_fuses'
p204
S'0xdd'
p205
sS'low_fuses'
p206
S'0xff'
p207
sS'lock_bits'
p208
S'0x0F'
p209
sS'file'
p210
S'ATmegaBOOT_168_diecimila.hex'
p211
sS'path'
p212
S'atmega'
p213
sS'unlock_bits'
p214
S'0x3F'
p215
ssS'build'
p216
(dp217
S'core'
p218
S'arduino'
p219
sS'mcu'
p220
S'atmega168'
p221
sS'f_cpu'
p222
S'16000000L'
p223
sS'variant'
p224
S'standard'
p225
ssS'name'
p226
S'Arduino Diecimila or Duemilanove w/ ATmega168'
p227
sS'upload'
p228
(dp229
S'protocol'
p230
S'arduino'
p231
sS'maximum_size'
p232
S'14336'
p233
sS'speed'
p234
S'19200'
p235
ssaa(lp236
S'nano328'
p237
a(dp238
g118
S'/usr/share/arduino/hardware/arduino'
p239
sS'bootloader'
p240
(dp241
S'extended_fuses'
p242
S'0x05'
p243
sS'high_fuses'
p244
S'0xDA'
p245
sS'low_fuses'
p246
S'0xFF'
p247
sS'lock_bits'
p248
S'0x0F'
p249
sS'file'
p250
S'ATmegaBOOT_168_atmega328.hex'
p251
sS'path'
p252
S'atmega'
p253
sS'unlock_bits'
p254
S'0x3F'
p255
ssS'build'
p256
(dp257
S'core'
p258
S'arduino'
p259
sS'mcu'
p260
S'atmega328p'
p261
sS'f_cpu'
p262
S'16000000L'
p263
sS'variant'
p264
S'eightanaloginputs'
p265
ssS'name'
p266
S'Arduino Nano w/ ATmega328'
p267
sS'upload'
p268
(dp269
S'protocol'
p270
S'arduino'
p271
sS'maximum_size'
p272
S'30720'
p273
sS'speed'
p274
S'57600'
p275
ssaa(lp276
S'nano'
p277
a(dp278
g118
S'/usr/share/arduino/hardware/arduino'
p279
sS'bootloader'
p280
(dp281
S'extended_fuses'
p282
S'0x00'
p283
sS'high_fuses'
p284
S'0xdd'
p285
sS'low_fuses'
p286
S'0xff'
p287
sS'lock_bits'
p288
S'0x0F'
p289
sS'file'
p290
S'ATmegaBOOT_168_diecimila.hex'
p291
sS'path'
p292
S'atmega'
p293
sS'unlock_bits'
p294
S'0x3F'
p295
ssS'build'
p296
(dp297
S'core'
p298
S'arduino'
p299
sS'mcu'
p300
S'atmega168'
p301
sS'f_cpu'
p302
S'16000000L'
p303
sS'variant'
p304
S'eightanaloginputs'
p305
ssS'name'
p306
S'Arduino Nano w/ ATmega168'
p307
sS'upload'
p308
(dp309
S'protocol'
p310
S'arduino'
p311
sS'maximum_size'
p312
S'14336'
p313
sS'speed'
p314
S'19200'
p315
ssaa(lp316
S'mega2560'
p317
a(dp318
g118
S'/usr/share/arduino/hardware/arduino'
p319
sS'bootloader'
p320
(dp321
S'extended_fuses'
p322
S'0xFD'
p323
sS'high_fuses'
p324
S'0xD8'
p325
sS'low_fuses'
p326
S'0xFF'
p327
sS'lock_bits'
p328
S'0x0F'
p329
sS'file'
p330
S'stk500boot_v2_mega2560.hex'
p331
sS'path'
p332
S'stk500v2'
p333
sS'unlock_bits'
p334
S'0x3F'
p335
ssS'build'
p336
(dp337
S'core'
p338
S'arduino'
p339
sS'mcu'
p340
S'atmega2560'
p341
sS'f_cpu'
p342
S'16000000L'
p343
sS'variant'
p344
S'mega'
p345
ssS'name'
p346
S'Arduino Mega 2560 or Mega ADK'
p347
sS'upload'
p348
(dp349
S'protocol'
p350
S'wiring'
p351
sS'maximum_size'
p352
S'258048'
p353
sS'speed'
p354
S'115200'
p355
ssaa(lp356
S'mega'
p357
a(dp358
g118
S'/usr/share/arduino/hardware/arduino'
p359
sS'bootloader'
p360
(dp361
S'extended_fuses'
p362
S'0xF5'
p363
sS'high_fuses'
p364
S'0xDA'
p365
sS'low_fuses'
p366
S'0xFF'
p367
sS'lock_bits'
p368
S'0x0F'
p369
sS'file'
p370
S'ATmegaBOOT_168_atmega1280.hex'
p371
sS'path'
p372
S'atmega'
p373
sS'unlock_bits'
p374
S'0x3F'
p375
ssS'build'
p376
(dp377
S'core'
p378
S'arduino'
p379
sS'mcu'
p380
S'atmega1280'
p381
sS'f_cpu'
p382
S'16000000L'
p383
sS'variant'
p384
S'mega'
p385
ssS'name'
p386
S'Arduino Mega (ATmega1280)'
p387
sS'upload'
p388
(dp389
S'protocol'
p390
S'arduino'
p391
sS'maximum_size'
p392
S'126976'
p393
sS'speed'
p394
S'57600'
p395
ssaa(lp396
S'leonardo'
p397
a(dp398
g118
S'/usr/share/arduino/hardware/arduino'
p399
sS'bootloader'
p400
(dp401
S'extended_fuses'
p402
S'0xcb'
p403
sS'high_fuses'
p404
S'0xd8'
p405
sS'low_fuses'
p406
S'0xff'
p407
sS'lock_bits'
p408
S'0x2F'
p409
sS'file'
p410
S'Caterina-Leonardo.hex'
p411
sS'path'
p412
S'caterina'
p413
sS'unlock_bits'
p414
S'0x3F'
p415
ssS'build'
p416
(dp417
S'core'
p418
S'arduino'
p419
sS'f_cpu'
p420
S'16000000L'
p421
sS'vid'
p422
S'0x2341'
p423
sS'pid'
p424
S'0x8036'
p425
sS'variant'
p426
S'leonardo'
p427
sS'mcu'
p428
S'atmega32u4'
p429
ssS'name'
p430
S'Arduino Leonardo'
p431
sS'upload'
p432
(dp433
S'protocol'
p434
S'avr109'
p435
sS'maximum_size'
p436
S'28672'
p437
sS'speed'
p438
S'57600'
p439
sS'disable_flushing'
p440
S'true'
p441
ssaa(lp442
S'esplora'
p443
a(dp444
g118
S'/usr/share/arduino/hardware/arduino'
p445
sS'bootloader'
p446
(dp447
S'extended_fuses'
p448
S'0xcb'
p449
sS'high_fuses'
p450
S'0xd8'
p451
sS'low_fuses'
p452
S'0xff'
p453
sS'lock_bits'
p454
S'0x2F'
p455
sS'file'
p456
S'Caterina-Esplora.hex'
p457
sS'path'
p458
S'caterina'
p459
sS'unlock_bits'
p460
S'0x3F'
p461
ssS'build'
p462
(dp463
S'core'
p464
S'arduino'
p465
sS'f_cpu'
p466
S'16000000L'
p467
sS'vid'
p468
S'0x2341'
p469
sS'pid'
p470
S'0x803C'
p471
sS'variant'
p472
S'leonardo'
p473
sS'mcu'
p474
S'atmega32u4'
p475
ssS'name'
p476
S'Arduino Esplora'
p477
sS'upload'
p478
(dp479
S'protocol'
p480
S'avr109'
p481
sS'maximum_size'
p482
S'28672'
p483
sS'speed'
p484
S'57600'
p485
sS'disable_flushing'
p486
S'true'
p487
ssaa(lp488
S'micro'
p489
a(dp490
g118
S'/usr/share/arduino/hardware/arduino'
p491
sS'bootloader'
p492
(dp493
S'extended_fuses'
p494
S'0xcb'
p495
sS'high_fuses'
p496
S'0xd8'
p497
sS'low_fuses'
p498
S'0xff'
p499
sS'lock_bits'
p500
S'0x2F'
p501
sS'file'
p502
S'Caterina-Micro.hex'
p503
sS'path'
p504
S'caterina'
p505
sS'unlock_bits'
p506
S'0x3F'
p507
ssS'build'
p508
(dp509
S'core'
p510
S'arduino'
p511
sS'f_cpu'
p512
S'16000000L'
p513
sS'vid'
p514
S'0x2341'
p515
sS'pid'
p516
S'0x8037'
p517
sS'variant'
p518
S'micro'
p519
sS'mcu'
p520
S'atmega32u4'
p521
ssS'name'
p522
S'Arduino Micro'
p523
sS'upload'
p524
(dp525
S'protocol'
p526
S'avr109'
p527
sS'maximum_size'
p528
S'28672'
p529
sS'speed'
p530
S'57600'
p531
sS'disable_flushing'
p532
S'true'
p533
ssaa(lp534
S'mini328'
p535
a(dp536
g118
S'/usr/share/arduino/hardware/arduino'
p537
sS'bootloader'
p538
(dp539
S'extended_fuses'
p540
S'0x05'
p541
sS'high_fuses'
p542
S'0xd8'
p543
sS'low_fuses'
p544
S'0xff'
p545
sS'lock_bits'
p546
S'0x0F'
p547
sS'file'
p548
S'optiboot_atmega328-Mini.hex'
p549
sS'path'
p550
S'optiboot'
p551
sS'unlock_bits'
p552
S'0x3F'
p553
ssS'build'
p554
(dp555
S'core'
p556
S'arduino'
p557
sS'mcu'
p558
S'atmega328p'
p559
sS'f_cpu'
p560
S'16000000L'
p561
sS'variant'
p562
S'eightanaloginputs'
p563
ssS'name'
p564
S'Arduino Mini w/ ATmega328'
p565
sS'upload'
p566
(dp567
S'protocol'
p568
S'arduino'
p569
sS'maximum_size'
p570
S'28672'
p571
sS'speed'
p572
S'115200'
p573
ssaa(lp574
S'mini'
p575
a(dp576
g118
S'/usr/share/arduino/hardware/arduino'
p577
sS'bootloader'
p578
(dp579
S'extended_fuses'
p580
S'0x00'
p581
sS'high_fuses'
p582
S'0xdd'
p583
sS'low_fuses'
p584
S'0xff'
p585
sS'lock_bits'
p586
S'0x0F'
p587
sS'file'
p588
S'ATmegaBOOT_168_ng.hex'
p589
sS'path'
p590
S'atmega'
p591
sS'unlock_bits'
p592
S'0x3F'
p593
ssS'build'
p594
(dp595
S'core'
p596
S'arduino'
p597
sS'mcu'
p598
S'atmega168'
p599
sS'f_cpu'
p600
S'16000000L'
p601
sS'variant'
p602
S'eightanaloginputs'
p603
ssS'name'
p604
S'Arduino Mini w/ ATmega168'
p605
sS'upload'
p606
(dp607
S'protocol'
p608
S'arduino'
p609
sS'maximum_size'
p610
S'14336'
p611
sS'speed'
p612
S'19200'
p613
ssaa(lp614
S'ethernet'
p615
a(dp616
g118
S'/usr/share/arduino/hardware/arduino'
p617
sS'bootloader'
p618
(dp619
S'extended_fuses'
p620
S'0x05'
p621
sS'high_fuses'
p622
S'0xde'
p623
sS'low_fuses'
p624
S'0xff'
p625
sS'lock_bits'
p626
S'0x0F'
p627
sS'file'
p628
S'optiboot_atmega328.hex'
p629
sS'path'
p630
S'optiboot'
p631
sS'unlock_bits'
p632
S'0x3F'
p633
ssS'build'
p634
(dp635
S'variant'
p636
S'standard'
p637
sS'mcu'
p638
S'atmega328p'
p639
sS'f_cpu'
p640
S'16000000L'
p641
sS'core'
p642
S'arduino'
p643
ssS'name'
p644
S'Arduino Ethernet'
p645
sS'upload'
p646
(dp647
S'protocol'
p648
S'arduino'
p649
sS'maximum_size'
p650
S'32256'
p651
sS'speed'
p652
S'115200'
p653
ssaa(lp654
S'fio'
p655
a(dp656
g118
S'/usr/share/arduino/hardware/arduino'
p657
sS'bootloader'
p658
(dp659
S'extended_fuses'
p660
S'0x05'
p661
sS'high_fuses'
p662
S'0xDA'
p663
sS'low_fuses'
p664
S'0xFF'
p665
sS'lock_bits'
p666
S'0x0F'
p667
sS'file'
p668
S'ATmegaBOOT_168_atmega328_pro_8MHz.hex'
p669
sS'path'
p670
S'arduino:atmega'
p671
sS'unlock_bits'
p672
S'0x3F'
p673
ssS'build'
p674
(dp675
S'core'
p676
S'arduino'
p677
sS'mcu'
p678
S'atmega328p'
p679
sS'f_cpu'
p680
S'8000000L'
p681
sS'variant'
p682
S'eightanaloginputs'
p683
ssS'name'
p684
S'Arduino Fio'
p685
sS'upload'
p686
(dp687
S'protocol'
p688
S'arduino'
p689
sS'maximum_size'
p690
S'30720'
p691
sS'speed'
p692
S'57600'
p693
ssaa(lp694
S'bt328'
p695
a(dp696
g118
S'/usr/share/arduino/hardware/arduino'
p697
sS'bootloader'
p698
(dp699
S'extended_fuses'
p700
S'0x05'
p701
sS'high_fuses'
p702
S'0xd8'
p703
sS'low_fuses'
p704
S'0xff'
p705
sS'lock_bits'
p706
S'0x0F'
p707
sS'file'
p708
S'ATmegaBOOT_168_atmega328_bt.hex'
p709
sS'path'
p710
S'bt'
p711
sS'unlock_bits'
p712
S'0x3F'
p713
ssS'build'
p714
(dp715
S'core'
p716
S'arduino'
p717
sS'mcu'
p718
S'atmega328p'
p719
sS'f_cpu'
p720
S'16000000L'
p721
sS'variant'
p722
S'eightanaloginputs'
p723
ssS'name'
p724
S'Arduino BT w/ ATmega328'
p725
sS'upload'
p726
(dp727
S'protocol'
p728
S'arduino'
p729
sS'maximum_size'
p730
S'28672'
p731
sS'speed'
p732
S'19200'
p733
sS'disable_flushing'
p734
S'true'
p735
ssaa(lp736
S'bt'
p737
a(dp738
g118
S'/usr/share/arduino/hardware/arduino'
p739
sS'bootloader'
p740
(dp741
S'extended_fuses'
p742
S'0x00'
p743
sS'high_fuses'
p744
S'0xdd'
p745
sS'low_fuses'
p746
S'0xff'
p747
sS'lock_bits'
p748
S'0x0F'
p749
sS'file'
p750
S'ATmegaBOOT_168.hex'
p751
sS'path'
p752
S'bt'
p753
sS'unlock_bits'
p754
S'0x3F'
p755
ssS'build'
p756
(dp757
S'core'
p758
S'arduino'
p759
sS'mcu'
p760
S'atmega168'
p761
sS'f_cpu'
p762
S'16000000L'
p763
sS'variant'
p764
S'eightanaloginputs'
p765
ssS'name'
p766
S'Arduino BT w/ ATmega168'
p767
sS'upload'
p768
(dp769
S'protocol'
p770
S'arduino'
p771
sS'maximum_size'
p772
S'14336'
p773
sS'speed'
p774
S'19200'
p775
sS'disable_flushing'
p776
S'true'
p777
ssaa(lp778
S'LilyPadUSB'
p779
a(dp780
g118
S'/usr/share/arduino/hardware/arduino'
p781
sS'bootloader'
p782
(dp783
S'extended_fuses'
p784
S'0xce'
p785
sS'high_fuses'
p786
S'0xd8'
p787
sS'low_fuses'
p788
S'0xff'
p789
sS'lock_bits'
p790
S'0x2F'
p791
sS'file'
p792
S'Caterina-LilyPadUSB.hex'
p793
sS'path'
p794
S'caterina-LilyPadUSB'
p795
sS'unlock_bits'
p796
S'0x3F'
p797
ssS'build'
p798
(dp799
S'core'
p800
S'arduino'
p801
sS'f_cpu'
p802
S'8000000L'
p803
sS'vid'
p804
S'0x1B4F'
p805
sS'pid'
p806
S'0x9208'
p807
sS'variant'
p808
S'leonardo'
p809
sS'mcu'
p810
S'atmega32u4'
p811
ssS'name'
p812
S'LilyPad Arduino USB'
p813
sS'upload'
p814
(dp815
S'protocol'
p816
S'avr109'
p817
sS'maximum_size'
p818
S'28672'
p819
sS'speed'
p820
S'57600'
p821
sS'disable_flushing'
p822
S'true'
p823
ssaa(lp824
S'lilypad328'
p825
a(dp826
g118
S'/usr/share/arduino/hardware/arduino'
p827
sS'bootloader'
p828
(dp829
S'extended_fuses'
p830
S'0x05'
p831
sS'high_fuses'
p832
S'0xDA'
p833
sS'low_fuses'
p834
S'0xFF'
p835
sS'lock_bits'
p836
S'0x0F'
p837
sS'file'
p838
S'ATmegaBOOT_168_atmega328_pro_8MHz.hex'
p839
sS'path'
p840
S'atmega'
p841
sS'unlock_bits'
p842
S'0x3F'
p843
ssS'build'
p844
(dp845
S'core'
p846
S'arduino'
p847
sS'mcu'
p848
S'atmega328p'
p849
sS'f_cpu'
p850
S'8000000L'
p851
sS'variant'
p852
S'standard'
p853
ssS'name'
p854
S'LilyPad Arduino w/ ATmega328'
p855
sS'upload'
p856
(dp857
S'protocol'
p858
S'arduino'
p859
sS'maximum_size'
p860
S'30720'
p861
sS'speed'
p862
S'57600'
p863
ssaa(lp864
S'lilypad'
p865
a(dp866
g118
S'/usr/share/arduino/hardware/arduino'
p867
sS'bootloader'
p868
(dp869
S'extended_fuses'
p870
S'0x00'
p871
sS'high_fuses'
p872
S'0xdd'
p873
sS'low_fuses'
p874
S'0xe2'
p875
sS'lock_bits'
p876
S'0x0F'
p877
sS'file'
p878
S'LilyPadBOOT_168.hex'
p879
sS'path'
p880
S'lilypad'
p881
sS'unlock_bits'
p882
S'0x3F'
p883
ssS'build'
p884
(dp885
S'core'
p886
S'arduino'
p887
sS'mcu'
p888
S'atmega168'
p889
sS'f_cpu'
p890
S'8000000L'
p891
sS'variant'
p892
S'standard'
p893
ssS'name'
p894
S'LilyPad Arduino w/ ATmega168'
p895
sS'upload'
p896
(dp897
S'protocol'
p898
S'arduino'
p899
sS'maximum_size'
p900
S'14336'
p901
sS'speed'
p902
S'19200'
p903
ssaa(lp904
S'pro5v328'
p905
a(dp906
g118
S'/usr/share/arduino/hardware/arduino'
p907
sS'bootloader'
p908
(dp909
S'extended_fuses'
p910
S'0x05'
p911
sS'high_fuses'
p912
S'0xDA'
p913
sS'low_fuses'
p914
S'0xFF'
p915
sS'lock_bits'
p916
S'0x0F'
p917
sS'file'
p918
S'ATmegaBOOT_168_atmega328.hex'
p919
sS'path'
p920
S'atmega'
p921
sS'unlock_bits'
p922
S'0x3F'
p923
ssS'build'
p924
(dp925
S'core'
p926
S'arduino'
p927
sS'mcu'
p928
S'atmega328p'
p929
sS'f_cpu'
p930
S'16000000L'
p931
sS'variant'
p932
S'standard'
p933
ssS'name'
p934
S'Arduino Pro or Pro Mini (5V, 16 MHz) w/ ATmega328'
p935
sS'upload'
p936
(dp937
S'protocol'
p938
S'arduino'
p939
sS'maximum_size'
p940
S'30720'
p941
sS'speed'
p942
S'57600'
p943
ssaa(lp944
S'pro5v'
p945
a(dp946
g118
S'/usr/share/arduino/hardware/arduino'
p947
sS'bootloader'
p948
(dp949
S'extended_fuses'
p950
S'0x00'
p951
sS'high_fuses'
p952
S'0xdd'
p953
sS'low_fuses'
p954
S'0xff'
p955
sS'lock_bits'
p956
S'0x0F'
p957
sS'file'
p958
S'ATmegaBOOT_168_diecimila.hex'
p959
sS'path'
p960
S'atmega'
p961
sS'unlock_bits'
p962
S'0x3F'
p963
ssS'build'
p964
(dp965
S'core'
p966
S'arduino'
p967
sS'mcu'
p968
S'atmega168'
p969
sS'f_cpu'
p970
S'16000000L'
p971
sS'variant'
p972
S'standard'
p973
ssS'name'
p974
S'Arduino Pro or Pro Mini (5V, 16 MHz) w/ ATmega168'
p975
sS'upload'
p976
(dp977
S'protocol'
p978
S'arduino'
p979
sS'maximum_size'
p980
S'14336'
p981
sS'speed'
p982
S'19200'
p983
ssaa(lp984
S'pro328'
p985
a(dp986
g118
S'/usr/share/arduino/hardware/arduino'
p987
sS'bootloader'
p988
(dp989
S'extended_fuses'
p990
S'0x05'
p991
sS'high_fuses'
p992
S'0xDA'
p993
sS'low_fuses'
p994
S'0xFF'
p995
sS'lock_bits'
p996
S'0x0F'
p997
sS'file'
p998
S'ATmegaBOOT_168_atmega328_pro_8MHz.hex'
p999
sS'path'
p1000
S'atmega'
p1001
sS'unlock_bits'
p1002
S'0x3F'
p1003
ssS'build'
p1004
(dp1005
S'core'
p1006
S'arduino'
p1007
sS'mcu'
p1008
S'atmega328p'
p1009
sS'f_cpu'
p1010
S'8000000L'
p1011
sS'variant'
p1012
S'standard'
p1013
ssS'name'
p1014
S'Arduino Pro or Pro Mini (3.3V, 8 MHz) w/ ATmega328'
p1015
sS'upload'
p1016
(dp1017
S'protocol'
p1018
S'arduino'
p1019
sS'maximum_size'
p1020
S'30720'
p1021
sS'speed'
p1022
S'57600'
p1023
ssaa(lp1024
S'pro'
p1025
a(dp1026
g118
S'/usr/share/arduino/hardware/arduino'
p1027
sS'bootloader'
p1028
(dp1029
S'extended_fuses'
p1030
S'0x00'
p1031
sS'high_fuses'
p1032
S'0xdd'
p1033
sS'low_fuses'
p1034
S'0xc6'
p1035
sS'lock_bits'
p1036
S'0x0F'
p1037
sS'file'
p1038
S'ATmegaBOOT_168_pro_8MHz.hex'
p1039
sS'path'
p1040
S'atmega'
p1041
sS'unlock_bits'
p1042
S'0x3F'
p1043
ssS'build'
p1044
(dp1045
S'core'
p1046
S'arduino'
p1047
sS'mcu'
p1048
S'atmega168'
p1049
sS'f_cpu'
p1050
S'8000000L'
p1051
sS'variant'
p1052
S'standard'
p1053
ssS'name'
p1054
S'Arduino Pro or Pro Mini (3.3V, 8 MHz) w/ ATmega168'
p1055
sS'upload'
p1056
(dp1057
S'protocol'
p1058
S'arduino'
p1059
sS'maximum_size'
p1060
S'14336'
p1061
sS'speed'
p1062
S'19200'
p1063
ssaa(lp1064
S'atmega168'
p1065
a(dp1066
g118
S'/usr/share/arduino/hardware/arduino'
p1067
sS'bootloader'
p1068
(dp1069
S'extended_fuses'
p1070
S'0x00'
p1071
sS'high_fuses'
p1072
S'0xdd'
p1073
sS'low_fuses'
p1074
S'0xff'
p1075
sS'lock_bits'
p1076
S'0x0F'
p1077
sS'file'
p1078
S'ATmegaBOOT_168_ng.hex'
p1079
sS'path'
p1080
S'atmega'
p1081
sS'unlock_bits'
p1082
S'0x3F'
p1083
ssS'build'
p1084
(dp1085
S'core'
p1086
S'arduino'
p1087
sS'mcu'
p1088
S'atmega168'
p1089
sS'f_cpu'
p1090
S'16000000L'
p1091
sS'variant'
p1092
S'standard'
p1093
ssS'name'
p1094
S'Arduino NG or older w/ ATmega168'
p1095
sS'upload'
p1096
(dp1097
S'protocol'
p1098
S'arduino'
p1099
sS'maximum_size'
p1100
S'14336'
p1101
sS'speed'
p1102
S'19200'
p1103
ssaa(lp1104
S'atmega8'
p1105
a(dp1106
g118
S'/usr/share/arduino/hardware/arduino'
p1107
sS'bootloader'
p1108
(dp1109
S'high_fuses'
p1110
S'0xca'
p1111
sS'low_fuses'
p1112
S'0xdf'
p1113
sS'lock_bits'
p1114
S'0x0F'
p1115
sS'file'
p1116
S'ATmegaBOOT-prod-firmware-2009-11-07.hex'
p1117
sS'path'
p1118
S'atmega8'
p1119
sS'unlock_bits'
p1120
S'0x3F'
p1121
ssS'build'
p1122
(dp1123
S'core'
p1124
S'arduino'
p1125
sS'mcu'
p1126
S'atmega8'
p1127
sS'f_cpu'
p1128
S'16000000L'
p1129
sS'variant'
p1130
S'standard'
p1131
ssS'name'
p1132
S'Arduino NG or older w/ ATmega8'
p1133
sS'upload'
p1134
(dp1135
S'protocol'
p1136
S'arduino'
p1137
sS'maximum_size'
p1138
S'7168'
p1139
sS'speed'
p1140
S'19200'
p1141
ssaa(lp1142
S'robotControl'
p1143
a(dp1144
g118
S'/usr/share/arduino/hardware/arduino'
p1145
sS'bootloader'
p1146
(dp1147
S'extended_fuses'
p1148
S'0xcb'
p1149
sS'high_fuses'
p1150
S'0xd8'
p1151
sS'low_fuses'
p1152
S'0xff'
p1153
sS'lock_bits'
p1154
S'0x2F'
p1155
sS'file'
p1156
S'Caterina-Robot-Control.hex'
p1157
sS'path'
p1158
S'caterina-Arduino_Robot'
p1159
sS'unlock_bits'
p1160
S'0x3F'
p1161
ssS'build'
p1162
(dp1163
S'core'
p1164
S'robot'
p1165
sS'f_cpu'
p1166
S'16000000L'
p1167
sS'vid'
p1168
S'0x2341'
p1169
sS'pid'
p1170
S'0x8038'
p1171
sS'variant'
p1172
S'robot_control'
p1173
sS'mcu'
p1174
S'atmega32u4'
p1175
ssS'name'
p1176
S'Arduino Robot Control'
p1177
sS'upload'
p1178
(dp1179
S'protocol'
p1180
S'avr109'
p1181
sS'maximum_size'
p1182
S'28672'
p1183
sS'speed'
p1184
S'57600'
p1185
sS'disable_flushing'
p1186
S'true'
p1187
ssaa(lp1188
S'robotMotor'
p1189
a(dp1190
g118
S'/usr/share/arduino/hardware/arduino'
p1191
sS'bootloader'
p1192
(dp1193
S'extended_fuses'
p1194
S'0xcb'
p1195
sS'high_fuses'
p1196
S'0xd8'
p1197
sS'low_fuses'
p1198
S'0xff'
p1199
sS'lock_bits'
p1200
S'0x2F'
p1201
sS'file'
p1202
S'Caterina-Robot-Motor.hex'
p1203
sS'path'
p1204
S'caterina-Arduino_Robot'
p1205
sS'unlock_bits'
p1206
S'0x3F'
p1207
ssS'build'
p1208
(dp1209
S'core'
p1210
S'robot'
p1211
sS'f_cpu'
p1212
S'16000000L'
p1213
sS'vid'
p1214
S'0x2341'
p1215
sS'pid'
p1216
S'0x8039'
p1217
sS'variant'
p1218
S'robot_motor'
p1219
sS'mcu'
p1220
S'atmega32u4'
p1221
ssS'name'
p1222
S'Arduino Robot Motor'
p1223
sS'upload'
p1224
(dp1225
S'protocol'
p1226
S'avr109'
p1227
sS'maximum_size'
p1228
S'28672'
p1229
sS'speed'
p1230
S'57600'
p1231
sS'disable_flushing'
p1232
S'true'
p1233
ssaatp1234
Rp1235
(dp1236
S'default'
p1237
S'uno'
p1238
sbtp1239
a(S'ldflags'
p1240
g2
(g3
g4
(lp1241
g6
aS'-Wl,-Os'
p1242
aS'-Wl,--gc-sections'
p1243
atp1244
Rp1245
tp1246
a.